target datalayout = "e-m:e-p270:32:32-p271:32:32-p272:64:64-i64:64-i128:128-f80:128-n8:16:32:64-S128"
target triple = "x86_64-pc-linux-gnu"

%class.decode_env = type <{ ptr, ptr, ptr, ptr, ptr, [512 x i8], i8, [7 x i8], ptr, i32, i32, i32, i8, i8, i8, i8 }>

; Function Attrs: mustprogress nounwind uwtable
define linkonce_odr hidden noundef i32 @_ZN9Assembler12instr_maxlenEv() #1 comdat align 2 {
  ret i32 4
}

; Function Attrs: mustprogress nounwind uwtable
define linkonce_odr hidden noundef i32 @_ZN9Assembler9instr_lenEPh(ptr noundef %0) #1 comdat align 2 {
  %2 = alloca ptr, align 8
  store ptr %0, ptr %2, align 8
  ret i32 4
}

; Function Attrs: mustprogress nounwind uwtable
define linkonce_odr hidden noundef ptr @_ZN10decode_env6outputEv(ptr noundef nonnull align 8 dereferenceable(583) %0) #1 comdat align 2 {
  %2 = alloca ptr, align 8
  store ptr %0, ptr %2, align 8
  %3 = load ptr, ptr %2, align 8
  %4 = getelementptr inbounds %class.decode_env, ptr %3, i32 0, i32 0
  %5 = load ptr, ptr %4, align 8
  ret ptr %5
}

; Function Attrs: mustprogress nounwind uwtable
define linkonce_odr hidden noundef ptr @_ZN10decode_env8cur_insnEv(ptr noundef nonnull align 8 dereferenceable(583) %0) #1 comdat align 2 {
  %2 = alloca ptr, align 8
  store ptr %0, ptr %2, align 8
  %3 = load ptr, ptr %2, align 8
  %4 = getelementptr inbounds %class.decode_env, ptr %3, i32 0, i32 8
  %5 = load ptr, ptr %4, align 8
  ret ptr %5
}

; Function Attrs: mustprogress nounwind uwtable
define hidden void @_ZN10decode_env17print_insn_prefixEv(ptr noundef nonnull align 8 dereferenceable(583) %0) #1 align 2 {
  %2 = alloca ptr, align 8
  %3 = alloca ptr, align 8
  %4 = alloca ptr, align 8
  store ptr %0, ptr %2, align 8
  %5 = load ptr, ptr %2, align 8
  %6 = call noundef ptr @_ZN10decode_env8cur_insnEv(ptr noundef nonnull align 8 dereferenceable(583) %5)
  store ptr %6, ptr %3, align 8
  %7 = call noundef ptr @_ZN10decode_env6outputEv(ptr noundef nonnull align 8 dereferenceable(583) %5)
  store ptr %7, ptr %4, align 8
  %8 = load ptr, ptr %3, align 8
  %9 = getelementptr inbounds %class.decode_env, ptr %5, i32 0, i32 3
  %10 = load ptr, ptr %9, align 8
  %11 = getelementptr inbounds %class.decode_env, ptr %5, i32 0, i32 4
  %12 = load ptr, ptr %11, align 8
  %13 = load ptr, ptr %4, align 8
  %14 = call noundef i32 @_ZN20AbstractDisassembler14print_locationEPhS0_S0_P12outputStreambb(ptr noundef %8, ptr noundef %10, ptr noundef %12, ptr noundef %13, i1 noundef zeroext false, i1 noundef zeroext false)
  %15 = load ptr, ptr %3, align 8
  %16 = load ptr, ptr %3, align 8
  %17 = call noundef i32 @_ZN9Assembler9instr_lenEPh(ptr noundef %16)
  %18 = call noundef i32 @_ZN9Assembler12instr_maxlenEv()
  %19 = load ptr, ptr %4, align 8
  %20 = call noundef i32 @_ZN20AbstractDisassembler17print_instructionEPhiiP12outputStreambb(ptr noundef %15, i32 noundef %17, i32 noundef %18, ptr noundef %19, i1 noundef zeroext true, i1 noundef zeroext false)
  ret void
}