; Function Attrs: mustprogress nounwind uwtable
define hidden void @_ZN10decode_env17print_insn_prefixEv(ptr nocapture noundef nonnull readonly align 8 dereferenceable(583) %0) local_unnamed_addr #0 align 2 {
  %2 = getelementptr inbounds i8, ptr %0, i64 560
  %3 = load ptr, ptr %2, align 8
  %4 = load ptr, ptr %0, align 8
  %5 = getelementptr inbounds i8, ptr %0, i64 24
  %6 = load ptr, ptr %5, align 8
  %7 = getelementptr inbounds i8, ptr %0, i64 32
  %8 = load ptr, ptr %7, align 8
  %9 = tail call noundef i32 @_ZN20AbstractDisassembler14print_locationEPhS0_S0_P12outputStreambb(ptr noundef %3, ptr noundef %6, ptr noundef %8, ptr noundef %4, i1 noundef zeroext false, i1 noundef zeroext false) #11
  %10 = tail call noundef i32 @_ZN20AbstractDisassembler17print_instructionEPhiiP12outputStreambb(ptr noundef %3, i32 noundef 4, i32 noundef 4, ptr noundef %4, i1 noundef zeroext true, i1 noundef zeroext false) #11
  ret void
}